target datalayout = "e-m:e-p270:32:32-p271:32:32-p272:64:64-i64:64-i128:128-f80:128-n8:16:32:64-S128"
target triple = "x86_64-pc-linux-gnu"

%"class.std::__cxx11::basic_string" = type { %"struct.std::__cxx11::basic_string<char>::_Alloc_hider", i64, %union.anon }
%"struct.std::__cxx11::basic_string<char>::_Alloc_hider" = type { ptr }
%union.anon = type { i64, [8 x i8] }
%"class.std::vector" = type { %"struct.std::_Vector_base" }
%"struct.std::_Vector_base" = type { %"struct.std::_Vector_base<std::__cxx11::basic_string<char>, std::allocator<std::__cxx11::basic_string<char>>>::_Vector_impl" }
%"struct.std::_Vector_base<std::__cxx11::basic_string<char>, std::allocator<std::__cxx11::basic_string<char>>>::_Vector_impl" = type { %"struct.std::_Vector_base<std::__cxx11::basic_string<char>, std::allocator<std::__cxx11::basic_string<char>>>::_Vector_impl_data" }
%"struct.std::_Vector_base<std::__cxx11::basic_string<char>, std::allocator<std::__cxx11::basic_string<char>>>::_Vector_impl_data" = type { ptr, ptr, ptr }
%"class.std::chrono::duration" = type { double }
%class.cmGlobalGenerator = type <{ ptr, %"class.std::chrono::duration", %"class.std::__cxx11::basic_string", i64, %"class.std::__cxx11::basic_string", %"class.std::__cxx11::basic_string", ptr, %"class.std::vector.159", %"class.std::vector.164", %"class.std::unique_ptr.169", ptr, %"class.std::map.177", %"class.std::set.66", %class.cmExportSetMap, %"class.std::map.187", %"class.std::map.187", %"class.std::map", %"class.std::unordered_map.136", %"class.std::unordered_map.192", %"class.std::unordered_map.206", %"class.std::unordered_map.220", %"class.std::map.234", ptr, %"class.std::map.242", %"class.std::set.66", %"class.std::set.66", %"class.std::map", %"class.std::map", %"class.std::map", %"class.std::map.247", %"class.std::map", i64, %"class.std::map.252", %"class.std::unique_ptr.257", %"class.std::vector", %"class.std::map.265", %"class.std::map.270", %"class.std::set.66", %"class.std::set.66", %"class.std::set.66", %"class.std::map.275", %"class.std::map", %"class.std::unordered_set", %"class.std::vector.296", %"class.std::map.301", %class.cmFileLockPool, float, i8, i8, i8, i8, i8, i8, [6 x i8] }>
%"class.std::vector.159" = type { %"struct.std::_Vector_base.160" }
%"struct.std::_Vector_base.160" = type { %"struct.std::_Vector_base<std::unique_ptr<cmMakefile>, std::allocator<std::unique_ptr<cmMakefile>>>::_Vector_impl" }
%"struct.std::_Vector_base<std::unique_ptr<cmMakefile>, std::allocator<std::unique_ptr<cmMakefile>>>::_Vector_impl" = type { %"struct.std::_Vector_base<std::unique_ptr<cmMakefile>, std::allocator<std::unique_ptr<cmMakefile>>>::_Vector_impl_data" }
%"struct.std::_Vector_base<std::unique_ptr<cmMakefile>, std::allocator<std::unique_ptr<cmMakefile>>>::_Vector_impl_data" = type { ptr, ptr, ptr }
%"class.std::vector.164" = type { %"struct.std::_Vector_base.165" }
%"struct.std::_Vector_base.165" = type { %"struct.std::_Vector_base<std::unique_ptr<cmLocalGenerator>, std::allocator<std::unique_ptr<cmLocalGenerator>>>::_Vector_impl" }
%"struct.std::_Vector_base<std::unique_ptr<cmLocalGenerator>, std::allocator<std::unique_ptr<cmLocalGenerator>>>::_Vector_impl" = type { %"struct.std::_Vector_base<std::unique_ptr<cmLocalGenerator>, std::allocator<std::unique_ptr<cmLocalGenerator>>>::_Vector_impl_data" }
%"struct.std::_Vector_base<std::unique_ptr<cmLocalGenerator>, std::allocator<std::unique_ptr<cmLocalGenerator>>>::_Vector_impl_data" = type { ptr, ptr, ptr }
%"class.std::unique_ptr.169" = type { %"struct.std::__uniq_ptr_data.170" }
%"struct.std::__uniq_ptr_data.170" = type { %"class.std::__uniq_ptr_impl.171" }
%"class.std::__uniq_ptr_impl.171" = type { %"class.std::tuple.172" }
%"class.std::tuple.172" = type { %"struct.std::_Tuple_impl.173" }
%"struct.std::_Tuple_impl.173" = type { %"struct.std::_Head_base.176" }
%"struct.std::_Head_base.176" = type { ptr }
%"class.std::map.177" = type { %"class.std::_Rb_tree.178" }
%"class.std::_Rb_tree.178" = type { %"struct.std::_Rb_tree<std::__cxx11::basic_string<char>, std::pair<const std::__cxx11::basic_string<char>, std::vector<cmLocalGenerator *>>, std::_Select1st<std::pair<const std::__cxx11::basic_string<char>, std::vector<cmLocalGenerator *>>>, std::less<std::__cxx11::basic_string<char>>>::_Rb_tree_impl" }
%"struct.std::_Rb_tree<std::__cxx11::basic_string<char>, std::pair<const std::__cxx11::basic_string<char>, std::vector<cmLocalGenerator *>>, std::_Select1st<std::pair<const std::__cxx11::basic_string<char>, std::vector<cmLocalGenerator *>>>, std::less<std::__cxx11::basic_string<char>>>::_Rb_tree_impl" = type { %"struct.std::_Rb_tree_key_compare.21", %"struct.std::_Rb_tree_header" }
%"struct.std::_Rb_tree_key_compare.21" = type { %"struct.std::less.22" }
%"struct.std::less.22" = type { i8 }
%"struct.std::_Rb_tree_header" = type { %"struct.std::_Rb_tree_node_base", i64 }
%"struct.std::_Rb_tree_node_base" = type { i32, ptr, ptr, ptr }
%class.cmExportSetMap = type { %"class.std::map.182" }
%"class.std::map.182" = type { %"class.std::_Rb_tree.183" }
%"class.std::_Rb_tree.183" = type { %"struct.std::_Rb_tree<std::__cxx11::basic_string<char>, std::pair<const std::__cxx11::basic_string<char>, cmExportSet>, std::_Select1st<std::pair<const std::__cxx11::basic_string<char>, cmExportSet>>, std::less<std::__cxx11::basic_string<char>>>::_Rb_tree_impl" }
%"struct.std::_Rb_tree<std::__cxx11::basic_string<char>, std::pair<const std::__cxx11::basic_string<char>, cmExportSet>, std::_Select1st<std::pair<const std::__cxx11::basic_string<char>, cmExportSet>>, std::less<std::__cxx11::basic_string<char>>>::_Rb_tree_impl" = type { %"struct.std::_Rb_tree_key_compare.21", %"struct.std::_Rb_tree_header" }
%"class.std::map.187" = type { %"class.std::_Rb_tree.188" }
%"class.std::_Rb_tree.188" = type { %"struct.std::_Rb_tree<std::__cxx11::basic_string<char>, std::pair<const std::__cxx11::basic_string<char>, cmExportBuildFileGenerator *>, std::_Select1st<std::pair<const std::__cxx11::basic_string<char>, cmExportBuildFileGenerator *>>, std::less<std::__cxx11::basic_string<char>>>::_Rb_tree_impl" }
%"struct.std::_Rb_tree<std::__cxx11::basic_string<char>, std::pair<const std::__cxx11::basic_string<char>, cmExportBuildFileGenerator *>, std::_Select1st<std::pair<const std::__cxx11::basic_string<char>, cmExportBuildFileGenerator *>>, std::less<std::__cxx11::basic_string<char>>>::_Rb_tree_impl" = type { %"struct.std::_Rb_tree_key_compare.21", %"struct.std::_Rb_tree_header" }
%"class.std::unordered_map.136" = type { %"class.std::_Hashtable.137" }
%"class.std::_Hashtable.137" = type { ptr, i64, %"struct.std::__detail::_Hash_node_base", i64, %"struct.std::__detail::_Prime_rehash_policy", ptr }
%"struct.std::__detail::_Hash_node_base" = type { ptr }
%"struct.std::__detail::_Prime_rehash_policy" = type { float, i64 }
%"class.std::unordered_map.192" = type { %"class.std::_Hashtable.193" }
%"class.std::_Hashtable.193" = type { ptr, i64, %"struct.std::__detail::_Hash_node_base", i64, %"struct.std::__detail::_Prime_rehash_policy", ptr }
%"class.std::unordered_map.206" = type { %"class.std::_Hashtable.207" }
%"class.std::_Hashtable.207" = type { ptr, i64, %"struct.std::__detail::_Hash_node_base", i64, %"struct.std::__detail::_Prime_rehash_policy", ptr }
%"class.std::unordered_map.220" = type { %"class.std::_Hashtable.221" }
%"class.std::_Hashtable.221" = type { ptr, i64, %"struct.std::__detail::_Hash_node_base", i64, %"struct.std::__detail::_Prime_rehash_policy", ptr }
%"class.std::map.234" = type { %"class.std::_Rb_tree.235" }
%"class.std::_Rb_tree.235" = type { %"struct.std::_Rb_tree<const cmGeneratorTarget *, std::pair<const cmGeneratorTarget *const, unsigned long>, std::_Select1st<std::pair<const cmGeneratorTarget *const, unsigned long>>, std::less<const cmGeneratorTarget *>>::_Rb_tree_impl" }
%"struct.std::_Rb_tree<const cmGeneratorTarget *, std::pair<const cmGeneratorTarget *const, unsigned long>, std::_Select1st<std::pair<const cmGeneratorTarget *const, unsigned long>>, std::less<const cmGeneratorTarget *>>::_Rb_tree_impl" = type { %"struct.std::_Rb_tree_key_compare.239", %"struct.std::_Rb_tree_header" }
%"struct.std::_Rb_tree_key_compare.239" = type { %"struct.std::less.240" }
%"struct.std::less.240" = type { i8 }
%"class.std::map.242" = type { %"class.std::_Rb_tree.243" }
%"class.std::_Rb_tree.243" = type { %"struct.std::_Rb_tree<std::__cxx11::basic_string<char>, std::pair<const std::__cxx11::basic_string<char>, bool>, std::_Select1st<std::pair<const std::__cxx11::basic_string<char>, bool>>, std::less<std::__cxx11::basic_string<char>>>::_Rb_tree_impl" }
%"struct.std::_Rb_tree<std::__cxx11::basic_string<char>, std::pair<const std::__cxx11::basic_string<char>, bool>, std::_Select1st<std::pair<const std::__cxx11::basic_string<char>, bool>>, std::less<std::__cxx11::basic_string<char>>>::_Rb_tree_impl" = type { %"struct.std::_Rb_tree_key_compare.21", %"struct.std::_Rb_tree_header" }
%"class.std::map.247" = type { %"class.std::_Rb_tree.248" }
%"class.std::_Rb_tree.248" = type { %"struct.std::_Rb_tree<std::__cxx11::basic_string<char>, std::pair<const std::__cxx11::basic_string<char>, int>, std::_Select1st<std::pair<const std::__cxx11::basic_string<char>, int>>, std::less<std::__cxx11::basic_string<char>>>::_Rb_tree_impl" }
%"struct.std::_Rb_tree<std::__cxx11::basic_string<char>, std::pair<const std::__cxx11::basic_string<char>, int>, std::_Select1st<std::pair<const std::__cxx11::basic_string<char>, int>>, std::less<std::__cxx11::basic_string<char>>>::_Rb_tree_impl" = type { %"struct.std::_Rb_tree_key_compare.21", %"struct.std::_Rb_tree_header" }
%"class.std::map.252" = type { %"class.std::_Rb_tree.253" }
%"class.std::_Rb_tree.253" = type { %"struct.std::_Rb_tree<std::__cxx11::basic_string<char>, std::pair<const std::__cxx11::basic_string<char>, cmGlobalGenerator::RuleHash>, std::_Select1st<std::pair<const std::__cxx11::basic_string<char>, cmGlobalGenerator::RuleHash>>, std::less<std::__cxx11::basic_string<char>>>::_Rb_tree_impl" }
%"struct.std::_Rb_tree<std::__cxx11::basic_string<char>, std::pair<const std::__cxx11::basic_string<char>, cmGlobalGenerator::RuleHash>, std::_Select1st<std::pair<const std::__cxx11::basic_string<char>, cmGlobalGenerator::RuleHash>>, std::less<std::__cxx11::basic_string<char>>>::_Rb_tree_impl" = type { %"struct.std::_Rb_tree_key_compare.21", %"struct.std::_Rb_tree_header" }
%"class.std::unique_ptr.257" = type { %"struct.std::__uniq_ptr_data.258" }
%"struct.std::__uniq_ptr_data.258" = type { %"class.std::__uniq_ptr_impl.259" }
%"class.std::__uniq_ptr_impl.259" = type { %"class.std::tuple.260" }
%"class.std::tuple.260" = type { %"struct.std::_Tuple_impl.261" }
%"struct.std::_Tuple_impl.261" = type { %"struct.std::_Head_base.264" }
%"struct.std::_Head_base.264" = type { ptr }
%"class.std::map.265" = type { %"class.std::_Rb_tree.266" }
%"class.std::_Rb_tree.266" = type { %"struct.std::_Rb_tree<const cmGeneratorTarget *, std::pair<const cmGeneratorTarget *const, cmTargetDependSet>, std::_Select1st<std::pair<const cmGeneratorTarget *const, cmTargetDependSet>>, std::less<const cmGeneratorTarget *>>::_Rb_tree_impl" }
%"struct.std::_Rb_tree<const cmGeneratorTarget *, std::pair<const cmGeneratorTarget *const, cmTargetDependSet>, std::_Select1st<std::pair<const cmGeneratorTarget *const, cmTargetDependSet>>, std::less<const cmGeneratorTarget *>>::_Rb_tree_impl" = type { %"struct.std::_Rb_tree_key_compare.239", %"struct.std::_Rb_tree_header" }
%"class.std::map.270" = type { %"class.std::_Rb_tree.271" }
%"class.std::_Rb_tree.271" = type { %"struct.std::_Rb_tree<std::__cxx11::basic_string<char>, std::pair<const std::__cxx11::basic_string<char>, cmGlobalGenerator::DirectoryContent>, std::_Select1st<std::pair<const std::__cxx11::basic_string<char>, cmGlobalGenerator::DirectoryContent>>, std::less<std::__cxx11::basic_string<char>>>::_Rb_tree_impl" }
%"struct.std::_Rb_tree<std::__cxx11::basic_string<char>, std::pair<const std::__cxx11::basic_string<char>, cmGlobalGenerator::DirectoryContent>, std::_Select1st<std::pair<const std::__cxx11::basic_string<char>, cmGlobalGenerator::DirectoryContent>>, std::less<std::__cxx11::basic_string<char>>>::_Rb_tree_impl" = type { %"struct.std::_Rb_tree_key_compare.21", %"struct.std::_Rb_tree_header" }
%"class.std::set.66" = type { %"class.std::_Rb_tree.67" }
%"class.std::_Rb_tree.67" = type { %"struct.std::_Rb_tree<std::__cxx11::basic_string<char>, std::__cxx11::basic_string<char>, std::_Identity<std::__cxx11::basic_string<char>>, std::less<std::__cxx11::basic_string<char>>>::_Rb_tree_impl" }
%"struct.std::_Rb_tree<std::__cxx11::basic_string<char>, std::__cxx11::basic_string<char>, std::_Identity<std::__cxx11::basic_string<char>>, std::less<std::__cxx11::basic_string<char>>>::_Rb_tree_impl" = type { %"struct.std::_Rb_tree_key_compare.21", %"struct.std::_Rb_tree_header" }
%"class.std::map.275" = type { %"class.std::_Rb_tree.276" }
%"class.std::_Rb_tree.276" = type { %"struct.std::_Rb_tree<cmSourceFile *, std::pair<cmSourceFile *const, std::set<const cmGeneratorTarget *>>, std::_Select1st<std::pair<cmSourceFile *const, std::set<const cmGeneratorTarget *>>>, std::less<cmSourceFile *>>::_Rb_tree_impl" }
%"struct.std::_Rb_tree<cmSourceFile *, std::pair<cmSourceFile *const, std::set<const cmGeneratorTarget *>>, std::_Select1st<std::pair<cmSourceFile *const, std::set<const cmGeneratorTarget *>>>, std::less<cmSourceFile *>>::_Rb_tree_impl" = type { %"struct.std::_Rb_tree_key_compare.280", %"struct.std::_Rb_tree_header" }
%"struct.std::_Rb_tree_key_compare.280" = type { %"struct.std::less.281" }
%"struct.std::less.281" = type { i8 }
%"class.std::map" = type { %"class.std::_Rb_tree.17" }
%"class.std::_Rb_tree.17" = type { %"struct.std::_Rb_tree<std::__cxx11::basic_string<char>, std::pair<const std::__cxx11::basic_string<char>, std::__cxx11::basic_string<char>>, std::_Select1st<std::pair<const std::__cxx11::basic_string<char>, std::__cxx11::basic_string<char>>>, std::less<std::__cxx11::basic_string<char>>>::_Rb_tree_impl" }
%"struct.std::_Rb_tree<std::__cxx11::basic_string<char>, std::pair<const std::__cxx11::basic_string<char>, std::__cxx11::basic_string<char>>, std::_Select1st<std::pair<const std::__cxx11::basic_string<char>, std::__cxx11::basic_string<char>>>, std::less<std::__cxx11::basic_string<char>>>::_Rb_tree_impl" = type { %"struct.std::_Rb_tree_key_compare.21", %"struct.std::_Rb_tree_header" }
%"class.std::unordered_set" = type { %"class.std::_Hashtable.283" }
%"class.std::_Hashtable.283" = type { ptr, i64, %"struct.std::__detail::_Hash_node_base", i64, %"struct.std::__detail::_Prime_rehash_policy", ptr }
%"class.std::vector.296" = type { %"struct.std::_Vector_base.297" }
%"struct.std::_Vector_base.297" = type { %"struct.std::_Vector_base<std::unique_ptr<cmInstallRuntimeDependencySet>, std::allocator<std::unique_ptr<cmInstallRuntimeDependencySet>>>::_Vector_impl" }
%"struct.std::_Vector_base<std::unique_ptr<cmInstallRuntimeDependencySet>, std::allocator<std::unique_ptr<cmInstallRuntimeDependencySet>>>::_Vector_impl" = type { %"struct.std::_Vector_base<std::unique_ptr<cmInstallRuntimeDependencySet>, std::allocator<std::unique_ptr<cmInstallRuntimeDependencySet>>>::_Vector_impl_data" }
%"struct.std::_Vector_base<std::unique_ptr<cmInstallRuntimeDependencySet>, std::allocator<std::unique_ptr<cmInstallRuntimeDependencySet>>>::_Vector_impl_data" = type { ptr, ptr, ptr }
%"class.std::map.301" = type { %"class.std::_Rb_tree.302" }
%"class.std::_Rb_tree.302" = type { %"struct.std::_Rb_tree<std::__cxx11::basic_string<char>, std::pair<const std::__cxx11::basic_string<char>, cmInstallRuntimeDependencySet *>, std::_Select1st<std::pair<const std::__cxx11::basic_string<char>, cmInstallRuntimeDependencySet *>>, std::less<std::__cxx11::basic_string<char>>>::_Rb_tree_impl" }
%"struct.std::_Rb_tree<std::__cxx11::basic_string<char>, std::pair<const std::__cxx11::basic_string<char>, cmInstallRuntimeDependencySet *>, std::_Select1st<std::pair<const std::__cxx11::basic_string<char>, cmInstallRuntimeDependencySet *>>, std::less<std::__cxx11::basic_string<char>>>::_Rb_tree_impl" = type { %"struct.std::_Rb_tree_key_compare.21", %"struct.std::_Rb_tree_header" }
%class.cmFileLockPool = type { %"class.std::vector.306", %"class.std::vector.306", %"class.cmFileLockPool::ScopePool" }
%"class.std::vector.306" = type { %"struct.std::_Vector_base.307" }
%"struct.std::_Vector_base.307" = type { %"struct.std::_Vector_base<cmFileLockPool::ScopePool, std::allocator<cmFileLockPool::ScopePool>>::_Vector_impl" }
%"struct.std::_Vector_base<cmFileLockPool::ScopePool, std::allocator<cmFileLockPool::ScopePool>>::_Vector_impl" = type { %"struct.std::_Vector_base<cmFileLockPool::ScopePool, std::allocator<cmFileLockPool::ScopePool>>::_Vector_impl_data" }
%"struct.std::_Vector_base<cmFileLockPool::ScopePool, std::allocator<cmFileLockPool::ScopePool>>::_Vector_impl_data" = type { ptr, ptr, ptr }
%"class.cmFileLockPool::ScopePool" = type { %"class.std::vector.311" }
%"class.std::vector.311" = type { %"struct.std::_Vector_base.312" }
%"struct.std::_Vector_base.312" = type { %"struct.std::_Vector_base<cmFileLock, std::allocator<cmFileLock>>::_Vector_impl" }
%"struct.std::_Vector_base<cmFileLock, std::allocator<cmFileLock>>::_Vector_impl" = type { %"struct.std::_Vector_base<cmFileLock, std::allocator<cmFileLock>>::_Vector_impl_data" }
%"struct.std::_Vector_base<cmFileLock, std::allocator<cmFileLock>>::_Vector_impl_data" = type { ptr, ptr, ptr }

; Function Attrs: mustprogress uwtable
define linkonce_odr dso_local noundef nonnull align 8 dereferenceable(8) ptr @_ZNSt13unordered_mapINSt7__cxx1112basic_stringIcSt11char_traitsIcESaIcEEEP17cmGeneratorTargetSt4hashIS5_ESt8equal_toIS5_ESaISt4pairIKS5_S7_EEEixERSD_(ptr noundef nonnull align 8 dereferenceable(56) %0, ptr noundef nonnull align 8 dereferenceable(32) %1) #4 comdat align 2 {
  %3 = alloca ptr, align 8
  %4 = alloca ptr, align 8
  store ptr %0, ptr %3, align 8
  store ptr %1, ptr %4, align 8
  %5 = load ptr, ptr %3, align 8
  %6 = getelementptr inbounds %"class.std::unordered_map.192", ptr %5, i32 0, i32 0
  %7 = load ptr, ptr %4, align 8
  %8 = call noundef nonnull align 8 dereferenceable(8) ptr @_ZNSt8__detail9_Map_baseINSt7__cxx1112basic_stringIcSt11char_traitsIcESaIcEEESt4pairIKS6_P17cmGeneratorTargetESaISB_ENS_10_Select1stESt8equal_toIS6_ESt4hashIS6_ENS_18_Mod_range_hashingENS_20_Default_ranged_hashENS_20_Prime_rehash_policyENS_17_Hashtable_traitsILb1ELb0ELb1EEELb1EEixERS8_(ptr noundef nonnull align 1 dereferenceable(1) %6, ptr noundef nonnull align 8 dereferenceable(32) %7)
  ret ptr %8
}

; Function Attrs: mustprogress uwtable
define dso_local void @_ZN17cmGlobalGenerator20IndexGeneratorTargetEP17cmGeneratorTarget(ptr noundef nonnull align 8 dereferenceable(1778) %0, ptr noundef %1) #4 align 2 {
  %3 = alloca ptr, align 8
  %4 = alloca ptr, align 8
  store ptr %0, ptr %3, align 8
  store ptr %1, ptr %4, align 8
  %5 = load ptr, ptr %3, align 8
  %6 = load ptr, ptr %4, align 8
  %7 = call noundef zeroext i1 @_ZNK17cmGeneratorTarget10IsImportedEv(ptr noundef nonnull align 8 dereferenceable(2728) %6)
  br i1 %7, label %8, label %11

8:                                                ; preds = %2
  %9 = load ptr, ptr %4, align 8
  %10 = call noundef zeroext i1 @_ZNK17cmGeneratorTarget25IsImportedGloballyVisibleEv(ptr noundef nonnull align 8 dereferenceable(2728) %9)
  br i1 %10, label %11, label %17

11:                                               ; preds = %8, %2
  %12 = load ptr, ptr %4, align 8
  %13 = getelementptr inbounds %class.cmGlobalGenerator, ptr %5, i32 0, i32 18
  %14 = load ptr, ptr %4, align 8
  %15 = call noundef nonnull align 8 dereferenceable(32) ptr @_ZNK17cmGeneratorTarget7GetNameB5cxx11Ev(ptr noundef nonnull align 8 dereferenceable(2728) %14)
  %16 = call noundef nonnull align 8 dereferenceable(8) ptr @_ZNSt13unordered_mapINSt7__cxx1112basic_stringIcSt11char_traitsIcESaIcEEEP17cmGeneratorTargetSt4hashIS5_ESt8equal_toIS5_ESaISt4pairIKS5_S7_EEEixERSD_(ptr noundef nonnull align 8 dereferenceable(56) %13, ptr noundef nonnull align 8 dereferenceable(32) %15)
  store ptr %12, ptr %16, align 8
  br label %17

17:                                               ; preds = %11, %8
  ret void
}