; Function Attrs: mustprogress uwtable
define dso_local void @_ZN17cmGlobalGenerator20IndexGeneratorTargetEP17cmGeneratorTarget(ptr noundef nonnull align 8 dereferenceable(1778) %0, ptr noundef nonnull %1) local_unnamed_addr #3 align 2 {
  %3 = tail call noundef zeroext i1 @_ZNK17cmGeneratorTarget10IsImportedEv(ptr noundef nonnull align 8 dereferenceable(2728) %1)
  br i1 %3, label %4, label %6

4:                                                ; preds = %2
  %5 = tail call noundef zeroext i1 @_ZNK17cmGeneratorTarget25IsImportedGloballyVisibleEv(ptr noundef nonnull align 8 dereferenceable(2728) %1)
  br i1 %5, label %6, label %10

6:                                                ; preds = %4, %2
  %7 = getelementptr inbounds i8, ptr %0, i64 536
  %8 = tail call noundef nonnull align 8 dereferenceable(32) ptr @_ZNK17cmGeneratorTarget7GetNameB5cxx11Ev(ptr noundef nonnull align 8 dereferenceable(2728) %1)
  %9 = tail call noundef nonnull align 8 dereferenceable(8) ptr @_ZNSt8__detail9_Map_baseINSt7__cxx1112basic_stringIcSt11char_traitsIcESaIcEEESt4pairIKS6_P17cmGeneratorTargetESaISB_ENS_10_Select1stESt8equal_toIS6_ESt4hashIS6_ENS_18_Mod_range_hashingENS_20_Default_ranged_hashENS_20_Prime_rehash_policyENS_17_Hashtable_traitsILb1ELb0ELb1EEELb1EEixERS8_(ptr noundef nonnull align 1 dereferenceable(1) %7, ptr noundef nonnull align 8 dereferenceable(32) %8)
  store ptr %1, ptr %9, align 8
  br label %10

10:                                               ; preds = %6, %4
  ret void
}